; Function Attrs: mustprogress uwtable
define dso_local noundef ptr @_ZN7V3Const12constifyEditEP7AstNode(ptr noundef %0) #3 align 2 personality ptr @__gxx_personality_v0 {
  %2 = alloca %class.ConstVisitor, align 8
  call void @llvm.lifetime.start.p0(i64 232, ptr nonnull %2) #27
  call void @_ZN12ConstVisitorC2ENS_8ProcModeEb(ptr noundef nonnull align 8 dereferenceable(232) %2, i8 noundef zeroext 5, i1 noundef zeroext false)
  %3 = load i64, ptr @_ZN9VIsCached14s_cachedCntGblE, align 8, !tbaa !21
  %4 = add i64 %3, 1
  store i64 %4, ptr @_ZN9VIsCached14s_cachedCntGblE, align 8, !tbaa !21
  %5 = invoke noundef ptr @_ZN7AstNode25iterateSubtreeReturnEditsER9VNVisitor(ptr noundef nonnull align 8 dereferenceable(152) %0, ptr noundef nonnull align 8 dereferenceable(232) %2)
          to label %_ZN12ConstVisitor14mainAcceptEditEP7AstNode.exit unwind label %6

_ZN12ConstVisitor14mainAcceptEditEP7AstNode.exit: ; preds = %1
  call void @_ZN12ConstVisitorD2Ev(ptr noundef nonnull align 8 dereferenceable(232) %2) #27
  call void @llvm.lifetime.end.p0(i64 232, ptr nonnull %2) #27
  ret ptr %5

6:                                                ; preds = %1
  %7 = landingpad { ptr, i32 }
          cleanup
  call void @_ZN12ConstVisitorD2Ev(ptr noundef nonnull align 8 dereferenceable(232) %2) #27
  call void @llvm.lifetime.end.p0(i64 232, ptr nonnull %2) #27
  resume { ptr, i32 } %7
}